target datalayout = "e-m:e-p270:32:32-p271:32:32-p272:64:64-i64:64-i128:128-f80:128-n8:16:32:64-S128"
target triple = "x86_64-pc-linux-gnu"

%struct.recent_settings_tag = type { i32, i32, i32, i32, i32, i32, i32, i32, i32, i32, i32, i32, i32, i32, i32, i32, i32, i32, i32, i32, i32, i32, i32, i32, i32, i32, i32, i32, i32, i32, i32, i32, i32, i32, i32, i32, ptr, ptr, ptr, i32, i32, ptr, ptr, ptr, ptr, ptr, ptr, i32, ptr, ptr, ptr }
%class.QVariant = type { %"struct.QVariant::Private" }
%"struct.QVariant::Private" = type { %union.anon, i64 }
%union.anon = type { ptr, [16 x i8] }

@recent = external global %struct.recent_settings_tag, align 8

; Function Attrs: mustprogress uwtable
define linkonce_odr noundef i32 @_ZNK8QVariant5valueI15bytes_view_typeEET_v(ptr noundef nonnull align 8 dereferenceable(32) %0) #0 comdat align 2 {
  %2 = alloca ptr, align 8
  store ptr %0, ptr %2, align 8
  %3 = load ptr, ptr %2, align 8
  %4 = call noundef i32 @_Z13qvariant_castI15bytes_view_typeET_RK8QVariant(ptr noundef nonnull align 8 dereferenceable(32) %3)
  ret i32 %4
}

; Function Attrs: mustprogress uwtable
define void @_ZN12ByteViewText19setHexDisplayFormatEP7QAction(ptr noundef nonnull align 8 dereferenceable(328) %0, ptr noundef %1) #0 align 2 personality ptr @__gxx_personality_v0 {
  %3 = alloca ptr, align 8
  %4 = alloca ptr, align 8
  %5 = alloca %class.QVariant, align 8
  %6 = alloca ptr, align 8
  %7 = alloca i32, align 4
  store ptr %0, ptr %3, align 8
  store ptr %1, ptr %4, align 8
  %8 = load ptr, ptr %3, align 8
  %9 = load ptr, ptr %4, align 8
  %10 = icmp ne ptr %9, null
  br i1 %10, label %12, label %11

11:                                               ; preds = %2
  br label %16

12:                                               ; preds = %2
  %13 = load ptr, ptr %4, align 8
  call void @_ZNK7QAction4dataEv(ptr dead_on_unwind writable sret(%class.QVariant) align 8 %5, ptr noundef nonnull align 8 dereferenceable(16) %13)
  %14 = invoke noundef i32 @_ZNK8QVariant5valueI15bytes_view_typeEET_v(ptr noundef nonnull align 8 dereferenceable(32) %5)
          to label %15 unwind label %17

15:                                               ; preds = %12
  store i32 %14, ptr getelementptr inbounds (%struct.recent_settings_tag, ptr @recent, i32 0, i32 14), align 8
  call void @_ZN8QVariantD1Ev(ptr noundef nonnull align 8 dereferenceable(32) %5) #14
  call void @_ZN12ByteViewText23byteViewSettingsChangedEv(ptr noundef nonnull align 8 dereferenceable(328) %8)
  br label %16

16:                                               ; preds = %15, %11
  ret void

17:                                               ; preds = %12
  %18 = landingpad { ptr, i32 }
          cleanup
  %19 = extractvalue { ptr, i32 } %18, 0
  store ptr %19, ptr %6, align 8
  %20 = extractvalue { ptr, i32 } %18, 1
  store i32 %20, ptr %7, align 4
  call void @_ZN8QVariantD1Ev(ptr noundef nonnull align 8 dereferenceable(32) %5) #14
  br label %21

21:                                               ; preds = %17
  %22 = load ptr, ptr %6, align 8
  %23 = load i32, ptr %7, align 4
  %24 = insertvalue { ptr, i32 } poison, ptr %22, 0
  %25 = insertvalue { ptr, i32 } %24, i32 %23, 1
  resume { ptr, i32 } %25
}