; Function Attrs: mustprogress uwtable
define void @_ZN12ByteViewText19setHexDisplayFormatEP7QAction(ptr noundef nonnull align 8 dereferenceable(328) %0, ptr noundef %1) #0 align 2 personality ptr @__gxx_personality_v0 {
  %3 = alloca %class.QVariant, align 8
  %.not = icmp eq ptr %1, null
  br i1 %.not, label %6, label %4

4:                                                ; preds = %2
  call void @_ZNK7QAction4dataEv(ptr dead_on_unwind nonnull writable sret(%class.QVariant) align 8 %3, ptr noundef nonnull align 8 dereferenceable(16) %1)
  %5 = invoke noundef i32 @_Z13qvariant_castI15bytes_view_typeET_RK8QVariant(ptr noundef nonnull align 8 dereferenceable(32) %3)
          to label %_ZNK8QVariant5valueI15bytes_view_typeEET_v.exit unwind label %7

_ZNK8QVariant5valueI15bytes_view_typeEET_v.exit:  ; preds = %4
  store i32 %5, ptr getelementptr inbounds (%struct.recent_settings_tag, ptr @recent, i64 0, i32 14), align 8
  call void @_ZN8QVariantD1Ev(ptr noundef nonnull align 8 dereferenceable(32) %3) #22
  call void @_ZN12ByteViewText23byteViewSettingsChangedEv(ptr noundef nonnull align 8 dereferenceable(328) %0)
  br label %6

6:                                                ; preds = %2, %_ZNK8QVariant5valueI15bytes_view_typeEET_v.exit
  ret void

7:                                                ; preds = %4
  %8 = landingpad { ptr, i32 }
          cleanup
  call void @_ZN8QVariantD1Ev(ptr noundef nonnull align 8 dereferenceable(32) %3) #22
  resume { ptr, i32 } %8
}